target datalayout = "e-m:e-p270:32:32-p271:32:32-p272:64:64-i64:64-i128:128-f80:128-n8:16:32:64-S128"
target triple = "x86_64-pc-linux-gnu"

@subpel_filters = internal constant [7 x [6 x i8]] [[6 x i8] c"\00\06{\0C\01\00", [6 x i8] c"\02\0Bl$\08\01", [6 x i8] c"\00\09]2\06\00", [6 x i8] c"\03\10MM\10\03", [6 x i8] c"\00\062]\09\00", [6 x i8] c"\01\08$l\0B\02", [6 x i8] c"\00\01\0C{\06\00"], align 16
@ff_crop_tab = external hidden constant [2304 x i8], align 16

; Function Attrs: nounwind uwtable
define internal void @put_vp8_epel16_h6v6_c(ptr noundef %0, i64 noundef %1, ptr noundef %2, i64 noundef %3, i32 noundef %4, i32 noundef %5, i32 noundef %6) #1 {
  %8 = alloca ptr, align 8
  %9 = alloca i64, align 8
  %10 = alloca ptr, align 8
  %11 = alloca i64, align 8
  %12 = alloca i32, align 4
  %13 = alloca i32, align 4
  %14 = alloca i32, align 4
  %15 = alloca ptr, align 8
  %16 = alloca ptr, align 8
  %17 = alloca i32, align 4
  %18 = alloca i32, align 4
  %19 = alloca [592 x i8], align 16
  %20 = alloca ptr, align 8
  store ptr %0, ptr %8, align 8, !tbaa !10
  store i64 %1, ptr %9, align 8, !tbaa !12
  store ptr %2, ptr %10, align 8, !tbaa !10
  store i64 %3, ptr %11, align 8, !tbaa !12
  store i32 %4, ptr %12, align 4, !tbaa !14
  store i32 %5, ptr %13, align 4, !tbaa !14
  store i32 %6, ptr %14, align 4, !tbaa !14
  call void @llvm.lifetime.start.p0(i64 8, ptr %15) #6
  %21 = load i32, ptr %13, align 4, !tbaa !14
  %22 = sub nsw i32 %21, 1
  %23 = sext i32 %22 to i64
  %24 = getelementptr inbounds [7 x [6 x i8]], ptr @subpel_filters, i64 0, i64 %23
  %25 = getelementptr inbounds [6 x i8], ptr %24, i64 0, i64 0
  store ptr %25, ptr %15, align 8, !tbaa !10
  call void @llvm.lifetime.start.p0(i64 8, ptr %16) #6
  store ptr getelementptr inbounds (i8, ptr @ff_crop_tab, i64 1024), ptr %16, align 8, !tbaa !10
  call void @llvm.lifetime.start.p0(i64 4, ptr %17) #6
  call void @llvm.lifetime.start.p0(i64 4, ptr %18) #6
  call void @llvm.lifetime.start.p0(i64 592, ptr %19) #6
  call void @llvm.lifetime.start.p0(i64 8, ptr %20) #6
  %26 = getelementptr inbounds [592 x i8], ptr %19, i64 0, i64 0
  store ptr %26, ptr %20, align 8, !tbaa !10
  %27 = load i64, ptr %11, align 8, !tbaa !12
  %28 = mul nsw i64 2, %27
  %29 = load ptr, ptr %10, align 8, !tbaa !10
  %30 = sub i64 0, %28
  %31 = getelementptr inbounds i8, ptr %29, i64 %30
  store ptr %31, ptr %10, align 8, !tbaa !10
  store i32 0, ptr %18, align 4, !tbaa !14
  br label %32

32:                                               ; preds = %139, %7
  %33 = load i32, ptr %18, align 4, !tbaa !14
  %34 = load i32, ptr %12, align 4, !tbaa !14
  %35 = add nsw i32 %34, 6
  %36 = sub nsw i32 %35, 1
  %37 = icmp slt i32 %33, %36
  br i1 %37, label %38, label %142

38:                                               ; preds = %32
  store i32 0, ptr %17, align 4, !tbaa !14
  br label %39

39:                                               ; preds = %130, %38
  %40 = load i32, ptr %17, align 4, !tbaa !14
  %41 = icmp slt i32 %40, 16
  br i1 %41, label %42, label %133

42:                                               ; preds = %39
  %43 = load ptr, ptr %16, align 8, !tbaa !10
  %44 = load ptr, ptr %15, align 8, !tbaa !10
  %45 = getelementptr inbounds i8, ptr %44, i64 2
  %46 = load i8, ptr %45, align 1, !tbaa !18
  %47 = zext i8 %46 to i32
  %48 = load ptr, ptr %10, align 8, !tbaa !10
  %49 = load i32, ptr %17, align 4, !tbaa !14
  %50 = add nsw i32 %49, 0
  %51 = sext i32 %50 to i64
  %52 = getelementptr inbounds i8, ptr %48, i64 %51
  %53 = load i8, ptr %52, align 1, !tbaa !18
  %54 = zext i8 %53 to i32
  %55 = mul nsw i32 %47, %54
  %56 = load ptr, ptr %15, align 8, !tbaa !10
  %57 = getelementptr inbounds i8, ptr %56, i64 1
  %58 = load i8, ptr %57, align 1, !tbaa !18
  %59 = zext i8 %58 to i32
  %60 = load ptr, ptr %10, align 8, !tbaa !10
  %61 = load i32, ptr %17, align 4, !tbaa !14
  %62 = sub nsw i32 %61, 1
  %63 = sext i32 %62 to i64
  %64 = getelementptr inbounds i8, ptr %60, i64 %63
  %65 = load i8, ptr %64, align 1, !tbaa !18
  %66 = zext i8 %65 to i32
  %67 = mul nsw i32 %59, %66
  %68 = sub nsw i32 %55, %67
  %69 = load ptr, ptr %15, align 8, !tbaa !10
  %70 = getelementptr inbounds i8, ptr %69, i64 0
  %71 = load i8, ptr %70, align 1, !tbaa !18
  %72 = zext i8 %71 to i32
  %73 = load ptr, ptr %10, align 8, !tbaa !10
  %74 = load i32, ptr %17, align 4, !tbaa !14
  %75 = sub nsw i32 %74, 2
  %76 = sext i32 %75 to i64
  %77 = getelementptr inbounds i8, ptr %73, i64 %76
  %78 = load i8, ptr %77, align 1, !tbaa !18
  %79 = zext i8 %78 to i32
  %80 = mul nsw i32 %72, %79
  %81 = add nsw i32 %68, %80
  %82 = load ptr, ptr %15, align 8, !tbaa !10
  %83 = getelementptr inbounds i8, ptr %82, i64 3
  %84 = load i8, ptr %83, align 1, !tbaa !18
  %85 = zext i8 %84 to i32
  %86 = load ptr, ptr %10, align 8, !tbaa !10
  %87 = load i32, ptr %17, align 4, !tbaa !14
  %88 = add nsw i32 %87, 1
  %89 = sext i32 %88 to i64
  %90 = getelementptr inbounds i8, ptr %86, i64 %89
  %91 = load i8, ptr %90, align 1, !tbaa !18
  %92 = zext i8 %91 to i32
  %93 = mul nsw i32 %85, %92
  %94 = add nsw i32 %81, %93
  %95 = load ptr, ptr %15, align 8, !tbaa !10
  %96 = getelementptr inbounds i8, ptr %95, i64 4
  %97 = load i8, ptr %96, align 1, !tbaa !18
  %98 = zext i8 %97 to i32
  %99 = load ptr, ptr %10, align 8, !tbaa !10
  %100 = load i32, ptr %17, align 4, !tbaa !14
  %101 = add nsw i32 %100, 2
  %102 = sext i32 %101 to i64
  %103 = getelementptr inbounds i8, ptr %99, i64 %102
  %104 = load i8, ptr %103, align 1, !tbaa !18
  %105 = zext i8 %104 to i32
  %106 = mul nsw i32 %98, %105
  %107 = sub nsw i32 %94, %106
  %108 = load ptr, ptr %15, align 8, !tbaa !10
  %109 = getelementptr inbounds i8, ptr %108, i64 5
  %110 = load i8, ptr %109, align 1, !tbaa !18
  %111 = zext i8 %110 to i32
  %112 = load ptr, ptr %10, align 8, !tbaa !10
  %113 = load i32, ptr %17, align 4, !tbaa !14
  %114 = add nsw i32 %113, 3
  %115 = sext i32 %114 to i64
  %116 = getelementptr inbounds i8, ptr %112, i64 %115
  %117 = load i8, ptr %116, align 1, !tbaa !18
  %118 = zext i8 %117 to i32
  %119 = mul nsw i32 %111, %118
  %120 = add nsw i32 %107, %119
  %121 = add nsw i32 %120, 64
  %122 = ashr i32 %121, 7
  %123 = sext i32 %122 to i64
  %124 = getelementptr inbounds i8, ptr %43, i64 %123
  %125 = load i8, ptr %124, align 1, !tbaa !18
  %126 = load ptr, ptr %20, align 8, !tbaa !10
  %127 = load i32, ptr %17, align 4, !tbaa !14
  %128 = sext i32 %127 to i64
  %129 = getelementptr inbounds i8, ptr %126, i64 %128
  store i8 %125, ptr %129, align 1, !tbaa !18
  br label %130

130:                                              ; preds = %42
  %131 = load i32, ptr %17, align 4, !tbaa !14
  %132 = add nsw i32 %131, 1
  store i32 %132, ptr %17, align 4, !tbaa !14
  br label %39, !llvm.loop !39

133:                                              ; preds = %39
  %134 = load ptr, ptr %20, align 8, !tbaa !10
  %135 = getelementptr inbounds i8, ptr %134, i64 16
  store ptr %135, ptr %20, align 8, !tbaa !10
  %136 = load i64, ptr %11, align 8, !tbaa !12
  %137 = load ptr, ptr %10, align 8, !tbaa !10
  %138 = getelementptr inbounds i8, ptr %137, i64 %136
  store ptr %138, ptr %10, align 8, !tbaa !10
  br label %139

139:                                              ; preds = %133
  %140 = load i32, ptr %18, align 4, !tbaa !14
  %141 = add nsw i32 %140, 1
  store i32 %141, ptr %18, align 4, !tbaa !14
  br label %32, !llvm.loop !40

142:                                              ; preds = %32
  %143 = getelementptr inbounds [592 x i8], ptr %19, i64 0, i64 0
  %144 = getelementptr inbounds i8, ptr %143, i64 32
  store ptr %144, ptr %20, align 8, !tbaa !10
  %145 = load i32, ptr %14, align 4, !tbaa !14
  %146 = sub nsw i32 %145, 1
  %147 = sext i32 %146 to i64
  %148 = getelementptr inbounds [7 x [6 x i8]], ptr @subpel_filters, i64 0, i64 %147
  %149 = getelementptr inbounds [6 x i8], ptr %148, i64 0, i64 0
  store ptr %149, ptr %15, align 8, !tbaa !10
  store i32 0, ptr %18, align 4, !tbaa !14
  br label %150

150:                                              ; preds = %255, %142
  %151 = load i32, ptr %18, align 4, !tbaa !14
  %152 = load i32, ptr %12, align 4, !tbaa !14
  %153 = icmp slt i32 %151, %152
  br i1 %153, label %154, label %258

154:                                              ; preds = %150
  store i32 0, ptr %17, align 4, !tbaa !14
  br label %155

155:                                              ; preds = %246, %154
  %156 = load i32, ptr %17, align 4, !tbaa !14
  %157 = icmp slt i32 %156, 16
  br i1 %157, label %158, label %249

158:                                              ; preds = %155
  %159 = load ptr, ptr %16, align 8, !tbaa !10
  %160 = load ptr, ptr %15, align 8, !tbaa !10
  %161 = getelementptr inbounds i8, ptr %160, i64 2
  %162 = load i8, ptr %161, align 1, !tbaa !18
  %163 = zext i8 %162 to i32
  %164 = load ptr, ptr %20, align 8, !tbaa !10
  %165 = load i32, ptr %17, align 4, !tbaa !14
  %166 = add nsw i32 %165, 0
  %167 = sext i32 %166 to i64
  %168 = getelementptr inbounds i8, ptr %164, i64 %167
  %169 = load i8, ptr %168, align 1, !tbaa !18
  %170 = zext i8 %169 to i32
  %171 = mul nsw i32 %163, %170
  %172 = load ptr, ptr %15, align 8, !tbaa !10
  %173 = getelementptr inbounds i8, ptr %172, i64 1
  %174 = load i8, ptr %173, align 1, !tbaa !18
  %175 = zext i8 %174 to i32
  %176 = load ptr, ptr %20, align 8, !tbaa !10
  %177 = load i32, ptr %17, align 4, !tbaa !14
  %178 = sub nsw i32 %177, 16
  %179 = sext i32 %178 to i64
  %180 = getelementptr inbounds i8, ptr %176, i64 %179
  %181 = load i8, ptr %180, align 1, !tbaa !18
  %182 = zext i8 %181 to i32
  %183 = mul nsw i32 %175, %182
  %184 = sub nsw i32 %171, %183
  %185 = load ptr, ptr %15, align 8, !tbaa !10
  %186 = getelementptr inbounds i8, ptr %185, i64 0
  %187 = load i8, ptr %186, align 1, !tbaa !18
  %188 = zext i8 %187 to i32
  %189 = load ptr, ptr %20, align 8, !tbaa !10
  %190 = load i32, ptr %17, align 4, !tbaa !14
  %191 = sub nsw i32 %190, 32
  %192 = sext i32 %191 to i64
  %193 = getelementptr inbounds i8, ptr %189, i64 %192
  %194 = load i8, ptr %193, align 1, !tbaa !18
  %195 = zext i8 %194 to i32
  %196 = mul nsw i32 %188, %195
  %197 = add nsw i32 %184, %196
  %198 = load ptr, ptr %15, align 8, !tbaa !10
  %199 = getelementptr inbounds i8, ptr %198, i64 3
  %200 = load i8, ptr %199, align 1, !tbaa !18
  %201 = zext i8 %200 to i32
  %202 = load ptr, ptr %20, align 8, !tbaa !10
  %203 = load i32, ptr %17, align 4, !tbaa !14
  %204 = add nsw i32 %203, 16
  %205 = sext i32 %204 to i64
  %206 = getelementptr inbounds i8, ptr %202, i64 %205
  %207 = load i8, ptr %206, align 1, !tbaa !18
  %208 = zext i8 %207 to i32
  %209 = mul nsw i32 %201, %208
  %210 = add nsw i32 %197, %209
  %211 = load ptr, ptr %15, align 8, !tbaa !10
  %212 = getelementptr inbounds i8, ptr %211, i64 4
  %213 = load i8, ptr %212, align 1, !tbaa !18
  %214 = zext i8 %213 to i32
  %215 = load ptr, ptr %20, align 8, !tbaa !10
  %216 = load i32, ptr %17, align 4, !tbaa !14
  %217 = add nsw i32 %216, 32
  %218 = sext i32 %217 to i64
  %219 = getelementptr inbounds i8, ptr %215, i64 %218
  %220 = load i8, ptr %219, align 1, !tbaa !18
  %221 = zext i8 %220 to i32
  %222 = mul nsw i32 %214, %221
  %223 = sub nsw i32 %210, %222
  %224 = load ptr, ptr %15, align 8, !tbaa !10
  %225 = getelementptr inbounds i8, ptr %224, i64 5
  %226 = load i8, ptr %225, align 1, !tbaa !18
  %227 = zext i8 %226 to i32
  %228 = load ptr, ptr %20, align 8, !tbaa !10
  %229 = load i32, ptr %17, align 4, !tbaa !14
  %230 = add nsw i32 %229, 48
  %231 = sext i32 %230 to i64
  %232 = getelementptr inbounds i8, ptr %228, i64 %231
  %233 = load i8, ptr %232, align 1, !tbaa !18
  %234 = zext i8 %233 to i32
  %235 = mul nsw i32 %227, %234
  %236 = add nsw i32 %223, %235
  %237 = add nsw i32 %236, 64
  %238 = ashr i32 %237, 7
  %239 = sext i32 %238 to i64
  %240 = getelementptr inbounds i8, ptr %159, i64 %239
  %241 = load i8, ptr %240, align 1, !tbaa !18
  %242 = load ptr, ptr %8, align 8, !tbaa !10
  %243 = load i32, ptr %17, align 4, !tbaa !14
  %244 = sext i32 %243 to i64
  %245 = getelementptr inbounds i8, ptr %242, i64 %244
  store i8 %241, ptr %245, align 1, !tbaa !18
  br label %246

246:                                              ; preds = %158
  %247 = load i32, ptr %17, align 4, !tbaa !14
  %248 = add nsw i32 %247, 1
  store i32 %248, ptr %17, align 4, !tbaa !14
  br label %155, !llvm.loop !41

249:                                              ; preds = %155
  %250 = load i64, ptr %9, align 8, !tbaa !12
  %251 = load ptr, ptr %8, align 8, !tbaa !10
  %252 = getelementptr inbounds i8, ptr %251, i64 %250
  store ptr %252, ptr %8, align 8, !tbaa !10
  %253 = load ptr, ptr %20, align 8, !tbaa !10
  %254 = getelementptr inbounds i8, ptr %253, i64 16
  store ptr %254, ptr %20, align 8, !tbaa !10
  br label %255

255:                                              ; preds = %249
  %256 = load i32, ptr %18, align 4, !tbaa !14
  %257 = add nsw i32 %256, 1
  store i32 %257, ptr %18, align 4, !tbaa !14
  br label %150, !llvm.loop !42

258:                                              ; preds = %150
  call void @llvm.lifetime.end.p0(i64 8, ptr %20) #6
  call void @llvm.lifetime.end.p0(i64 592, ptr %19) #6
  call void @llvm.lifetime.end.p0(i64 4, ptr %18) #6
  call void @llvm.lifetime.end.p0(i64 4, ptr %17) #6
  call void @llvm.lifetime.end.p0(i64 8, ptr %16) #6
  call void @llvm.lifetime.end.p0(i64 8, ptr %15) #6
  ret void
}